; ModuleID = '23/906.c'
source_filename = "23/906.c"
target datalayout = "e-m:e-p270:32:32-p271:32:32-p272:64:64-i64:64-f80:128-n8:16:32:64-S128"
target triple = "x86_64-pc-linux-gnu"

@.str = private unnamed_addr constant [3 x i8] c"%s\00", align 1
@.str.1 = private unnamed_addr constant [4 x i8] c"%s \00", align 1

; Function Attrs: noinline nounwind uwtable
define dso_local void @main() #0 {
  %1 = alloca [1 x [50 x i8]], align 16
  %2 = alloca i32, align 4
  %3 = alloca i32, align 4
  %4 = alloca i32, align 4
  %5 = alloca i32, align 4
  %6 = bitcast [1 x [50 x i8]]* %1 to i8*
  call void @llvm.memset.p0i8.i64(i8* align 16 %6, i8 0, i64 50, i1 false)
  store i32 0, i32* %4, align 4
  store i32 1, i32* %2, align 4
  store i32 1, i32* %3, align 4
  %7 = load i32, i32* %2, align 4
  %8 = load i32, i32* %3, align 4
  %9 = mul nsw i32 %7, %8
  store i32 %9, i32* %2, align 4
  br label %10

10:                                               ; preds = %17, %0
  %11 = load i32, i32* %4, align 4
  %12 = sext i32 %11 to i64
  %13 = getelementptr inbounds [1 x [50 x i8]], [1 x [50 x i8]]* %1, i64 0, i64 %12
  %14 = getelementptr inbounds [50 x i8], [50 x i8]* %13, i64 0, i64 0
  %15 = call i32 (i8*, ...) @__isoc99_scanf(i8* getelementptr inbounds ([3 x i8], [3 x i8]* @.str, i64 0, i64 0), i8* %14)
  %16 = icmp ne i32 %15, -1
  br i1 %16, label %17, label %20

17:                                               ; preds = %10
  %18 = load i32, i32* %4, align 4
  %19 = add nsw i32 %18, 1
  store i32 %19, i32* %4, align 4
  br label %10

20:                                               ; preds = %10
  %21 = load i32, i32* %4, align 4
  %22 = sub nsw i32 %21, 1
  store i32 %22, i32* %5, align 4
  br label %23

23:                                               ; preds = %32, %20
  %24 = load i32, i32* %5, align 4
  %25 = icmp sge i32 %24, 1
  br i1 %25, label %26, label %35

26:                                               ; preds = %23
  %27 = load i32, i32* %5, align 4
  %28 = sext i32 %27 to i64
  %29 = getelementptr inbounds [1 x [50 x i8]], [1 x [50 x i8]]* %1, i64 0, i64 %28
  %30 = getelementptr inbounds [50 x i8], [50 x i8]* %29, i64 0, i64 0
  %31 = call i32 (i8*, ...) @printf(i8* getelementptr inbounds ([4 x i8], [4 x i8]* @.str.1, i64 0, i64 0), i8* %30)
  br label %32

32:                                               ; preds = %26
  %33 = load i32, i32* %5, align 4
  %34 = add nsw i32 %33, -1
  store i32 %34, i32* %5, align 4
  br label %23

35:                                               ; preds = %23
  %36 = getelementptr inbounds [1 x [50 x i8]], [1 x [50 x i8]]* %1, i64 0, i64 0
  %37 = getelementptr inbounds [50 x i8], [50 x i8]* %36, i64 0, i64 0
  %38 = call i32 (i8*, ...) @printf(i8* getelementptr inbounds ([3 x i8], [3 x i8]* @.str, i64 0, i64 0), i8* %37)
  ret void
}

; Function Attrs: argmemonly nounwind willreturn
declare void @llvm.memset.p0i8.i64(i8* nocapture writeonly, i8, i64, i1 immarg) #1

declare dso_local i32 @__isoc99_scanf(i8*, ...) #2

declare dso_local i32 @printf(i8*, ...) #2


!llvm.module.flags = !{!0}
!llvm.ident = !{!1}

!0 = !{i32 1, !"wchar_size", i32 4}
!1 = !{!"clang version 10.0.0-4ubuntu1 "}
